; Function Attrs: nounwind uwtable
define dso_local i64 @getExpire(ptr noundef readonly captures(none) %0, ptr noundef readonly captures(none) %1) local_unnamed_addr #0 {
  %3 = getelementptr inbounds nuw i8, ptr %1, i64 8
  %4 = load ptr, ptr %3, align 8, !tbaa !18
  %5 = getelementptr inbounds nuw i8, ptr %0, i64 8
  %6 = load ptr, ptr %5, align 8, !tbaa !72
  %7 = load ptr, ptr getelementptr inbounds nuw (i8, ptr @server, i64 1480), align 8, !tbaa !20
  %.not.i.i.i = icmp eq ptr %7, null
  br i1 %.not.i.i.i, label %16, label %8

8:                                                ; preds = %2
  %9 = getelementptr inbounds nuw i8, ptr %7, i64 232
  %10 = load i32, ptr %9, align 8, !tbaa !44
  %11 = icmp sgt i32 %10, -1
  br i1 %11, label %12, label %16

12:                                               ; preds = %8
  %13 = getelementptr inbounds nuw i8, ptr %7, i64 8
  %14 = load i64, ptr %13, align 8, !tbaa !55
  %15 = and i64 %14, 536870912
  %.not3.i.i.i = icmp eq i64 %15, 0
  br i1 %.not3.i.i.i, label %16, label %dbFindExpires.exit

16:                                               ; preds = %12, %8, %2
  %17 = tail call i32 @calculateKeySlot(ptr noundef %4)
  br label %dbFindExpires.exit

dbFindExpires.exit:                               ; preds = %12, %16
  %.0.i.i.i = phi i32 [ %17, %16 ], [ %10, %12 ]
  %18 = tail call ptr @kvstoreDictFind(ptr noundef %6, i32 noundef %.0.i.i.i, ptr noundef %4) #20
  %19 = icmp eq ptr %18, null
  br i1 %19, label %22, label %20

20:                                               ; preds = %dbFindExpires.exit
  %21 = tail call i64 @dictGetSignedIntegerVal(ptr noundef nonnull %18) #20
  br label %22

22:                                               ; preds = %dbFindExpires.exit, %20
  %.0 = phi i64 [ %21, %20 ], [ -1, %dbFindExpires.exit ]
  ret i64 %.0
}